; Function Attrs: inlinehint mustprogress optsize uwtable
define internal noundef ptr @"_ZZN8nanobind6detail11func_createILb0ELb1EZL32nanobind_init_test_functions_extRNS_7module_EE4$_75NS_3setEJETpTnmJEJNS_5scopeENS_4nameEEEEP7_objectOT1_PFT2_DpT3_ESt16integer_sequenceImJXspT4_EEEDpRKT5_ENUlPvPS9_PhNS_9rv_policyEPNS0_12cleanup_listEE_8__invokeESN_SO_SP_SQ_SS_"(ptr readnone captures(none) %0, ptr readnone captures(none) %1, ptr readnone captures(none) %2, i32 %3, ptr readnone captures(none) %4) #15 align 2 personality ptr @__gxx_personality_v0 {
  %6 = alloca i32, align 4
  %7 = alloca %"class.nanobind::set", align 8
  call void @llvm.lifetime.start.p0(i64 8, ptr nonnull %7) #27
  tail call void @llvm.experimental.noalias.scope.decl(metadata !348)
  %8 = tail call ptr @PySet_New(ptr noundef null) #28, !noalias !348
  store ptr %8, ptr %7, align 8, !alias.scope !348
  invoke void @_ZN8nanobind3set3addIRA4_KcEEvOT_(ptr noundef nonnull align 8 dereferenceable(8) %7, ptr noundef nonnull align 1 dereferenceable(4) @.str.140) #28
          to label %9 unwind label %10

9:                                                ; preds = %5
  call void @llvm.lifetime.start.p0(i64 4, ptr nonnull %6) #27, !noalias !348
  store i32 123, ptr %6, align 4, !tbaa !36, !noalias !348
  invoke void @_ZN8nanobind3set3addIiEEvOT_(ptr noundef nonnull align 8 dereferenceable(8) %7, ptr noundef nonnull align 4 dereferenceable(4) %6) #28
          to label %"_ZZL32nanobind_init_test_functions_extRN8nanobind7module_EENK4$_75clEv.exit" unwind label %12

10:                                               ; preds = %5
  %11 = landingpad { ptr, i32 }
          cleanup
  br label %14

12:                                               ; preds = %9
  %13 = landingpad { ptr, i32 }
          cleanup
  call void @llvm.lifetime.end.p0(i64 4, ptr nonnull %6) #27, !noalias !348
  br label %14

14:                                               ; preds = %12, %10
  %.pn.i = phi { ptr, i32 } [ %13, %12 ], [ %11, %10 ]
  %15 = call noundef nonnull align 8 dereferenceable(8) ptr @_ZNKR8nanobind6handle7dec_refEv(ptr noundef nonnull align 8 dereferenceable(8) %7) #31
  resume { ptr, i32 } %.pn.i

"_ZZL32nanobind_init_test_functions_extRN8nanobind7module_EENK4$_75clEv.exit": ; preds = %9
  call void @llvm.lifetime.end.p0(i64 4, ptr nonnull %6) #27, !noalias !348
  %16 = load ptr, ptr %7, align 8, !tbaa !44
  store ptr null, ptr %7, align 8, !tbaa !44
  %17 = call noundef nonnull align 8 dereferenceable(8) ptr @_ZNKR8nanobind6handle7dec_refEv(ptr noundef nonnull align 8 dereferenceable(8) %7) #31
  call void @llvm.lifetime.end.p0(i64 8, ptr nonnull %7) #27
  ret ptr %16
}